target datalayout = "e-m:e-p270:32:32-p271:32:32-p272:64:64-i64:64-i128:128-f80:128-n8:16:32:64-S128"
target triple = "x86_64-unknown-linux-gnu"

%"class.lp::create_cut" = type { ptr, ptr, ptr, i32, ptr, ptr, %class.rational, %class.rational, %class.rational, %class.rational, %class.rational, %class.rational, %class.rational }
%class.rational = type { %class.mpq }
%class.mpq = type { %class.mpz, %class.mpz }
%class.mpz = type { i32, i8, ptr }
%"class.lp::gomory" = type { ptr, ptr }
%"struct.lp::statistics" = type { i32, i32, i32, i32, i32, i32, i32, i32, i32, i32, i32, i32, i32, i32, i32, i32, i32, i32, i32, i32, i32, i32, i32, i32, i32, i32, i32, i32, i32, i32, i32 }
%"class.lp::int_solver" = type { ptr, ptr, %"class.lp::int_gcd_test", %"class.lp::int_solver::patcher", i32, [4 x i8], %"class.lp::lar_term", %class.rational, i8, ptr, %"class.lp::hnf_cutter", i32, %class.svector, %class.vector.11 }
%"class.lp::int_gcd_test" = type <{ ptr, ptr, i32, i32, %class.rational, %class.rational, %class.rational, %class.svector, %class.vector.1, %class.svector, i32, [4 x i8] }>
%class.vector.1 = type { ptr }
%"class.lp::int_solver::patcher" = type { ptr, ptr, ptr }
%"class.lp::lar_term" = type { %class.u_map }
%class.u_map = type { %class.map }
%class.map = type { %class.table2map }
%class.table2map = type { %class.core_hashtable }
%class.core_hashtable = type <{ ptr, i32, i32, i32, [4 x i8] }>
%"class.lp::hnf_cutter" = type { ptr, ptr, ptr, %"class.lp::general_matrix", %class.vector.4, %class.vector.5, %class.ptr_vector, %class.vector.7, %class.rational, i8, %"class.lp::var_register" }
%"class.lp::general_matrix" = type { %"class.lp::permutation_matrix", %"class.lp::permutation_matrix", %class.vector.3 }
%"class.lp::permutation_matrix" = type { %class.vector.2, %class.vector.2 }
%class.vector.2 = type { ptr }
%class.vector.3 = type { ptr }
%class.vector.4 = type { ptr }
%class.vector.5 = type { ptr }
%class.ptr_vector = type { %class.vector.6 }
%class.vector.6 = type { ptr }
%class.vector.7 = type { ptr }
%"class.lp::var_register" = type { %class.vector.8, %"class.std::unordered_map", i32, i32 }
%class.vector.8 = type { ptr }
%"class.std::unordered_map" = type { %"class.std::_Hashtable" }
%"class.std::_Hashtable" = type { ptr, i64, %"struct.std::__detail::_Hash_node_base", i64, %"struct.std::__detail::_Prime_rehash_policy", ptr }
%"struct.std::__detail::_Hash_node_base" = type { ptr }
%"struct.std::__detail::_Prime_rehash_policy" = type { float, i64 }
%class.svector = type { %class.vector.0 }
%class.vector.0 = type { ptr }
%class.vector.11 = type { ptr }
%"class.lp::static_matrix" = type { %"class.std::stack", %class.vector.24, %"class.lp::indexed_vector", %class.vector.25, %class.vector.26 }
%"class.std::stack" = type { %"class.std::deque" }
%"class.std::deque" = type { %"class.std::_Deque_base" }
%"class.std::_Deque_base" = type { %"struct.std::_Deque_base<lp::static_matrix<rational, lp::numeric_pair<rational>>::dim, std::allocator<lp::static_matrix<rational, lp::numeric_pair<rational>>::dim>>::_Deque_impl" }
%"struct.std::_Deque_base<lp::static_matrix<rational, lp::numeric_pair<rational>>::dim, std::allocator<lp::static_matrix<rational, lp::numeric_pair<rational>>::dim>>::_Deque_impl" = type { %"struct.std::_Deque_base<lp::static_matrix<rational, lp::numeric_pair<rational>>::dim, std::allocator<lp::static_matrix<rational, lp::numeric_pair<rational>>::dim>>::_Deque_impl_data" }
%"struct.std::_Deque_base<lp::static_matrix<rational, lp::numeric_pair<rational>>::dim, std::allocator<lp::static_matrix<rational, lp::numeric_pair<rational>>::dim>>::_Deque_impl_data" = type { ptr, i64, %"struct.std::_Deque_iterator", %"struct.std::_Deque_iterator" }
%"struct.std::_Deque_iterator" = type { ptr, ptr, ptr, ptr }
%class.vector.24 = type { ptr }
%"class.lp::indexed_vector" = type { %class.vector.7, %class.vector.2 }
%class.vector.25 = type { ptr }
%class.vector.26 = type { ptr }
%class.vector = type { ptr }
%class.vector.15 = type { ptr }
%"struct.lp::lp_settings" = type <{ %"class.lp::lp_settings::default_lp_resource_limit", ptr, ptr, ptr, %"struct.lp::statistics", %class.random_gen, i32, i32, i32, i8, [3 x i8], i32, i8, [3 x i8], i32, [4 x i8], double, i8, i8, [2 x i8], i32, i32, i8, [3 x i8], i32, i8, [3 x i8], i32, i8, [3 x i8], i32, i32, i32, i32, i8, [3 x i8], i32, i32, i32, i8, i8, i8, [5 x i8] }>
%"class.lp::lp_settings::default_lp_resource_limit" = type { %"class.lp::lp_resource_limit", ptr, %class.stopwatch }
%"class.lp::lp_resource_limit" = type { ptr }
%class.stopwatch = type <{ %"class.std::chrono::time_point", %"class.std::chrono::duration", i8, [7 x i8] }>
%"class.std::chrono::time_point" = type { %"class.std::chrono::duration" }
%"class.std::chrono::duration" = type { i64 }
%class.random_gen = type { i32 }
%"class.lp::lar_solver" = type { %"class.lp::column_namer", %class.trail_stack, %"struct.lp::lp_settings", i32, %class.stacked_value, i32, ptr, %"class.lp::lar_core_solver", ptr, i8, %"class.lp::var_register", %"class.lp::var_register", %class.svector.34, %"class.lp::constraint_set", %class.indexed_uint_set, %class.indexed_uint_set, %class.svector, %class.scoped_dependency_manager, %class.svector, %class.indexed_uint_set, %class.indexed_uint_set, %class.svector, %class.vector.38, %"class.lp::indexed_vector", %"class.std::unordered_map.39", %class.vector.16, %"class.lp::stacked_vector.27", %class.map.55, %class.map.55, %class.indexed_uint_set, i8, %"class.std::unordered_set", %"class.std::unordered_set.77", %class.rational, %"class.std::function" }
%"class.lp::column_namer" = type { ptr }
%class.trail_stack = type { %class.ptr_vector.12, %class.svector, %class.region }
%class.ptr_vector.12 = type { %class.vector.13 }
%class.vector.13 = type { ptr }
%class.region = type { ptr, ptr, ptr, ptr, ptr }
%class.stacked_value = type { i32, %class.vector.14 }
%class.vector.14 = type { ptr }
%"class.lp::lar_core_solver" = type { %class.vector.15, i32, %class.vector.16, %class.vector.7, %class.stacked_value, %"class.lp::stacked_vector", %class.vector.16, %"class.lp::stacked_vector.19", %"class.lp::stacked_vector.19", %"class.lp::static_matrix", %"class.lp::stacked_vector.27", %class.vector.2, %class.vector.2, %class.vector.24, %"class.lp::lp_primal_core_solver" }
%"class.lp::stacked_vector" = type { %class.svector, %class.svector, %class.vector.17, %class.vector.18, %class.svector }
%class.vector.17 = type { ptr }
%class.vector.18 = type { ptr }
%"class.lp::stacked_vector.19" = type { %class.svector, %class.svector, %class.vector.20, %class.vector.16, %class.svector }
%class.vector.20 = type { ptr }
%"class.lp::lp_primal_core_solver" = type { %"class.lp::lp_core_solver_base.base", i32, %class.vector.7, i32, i8, %class.indexed_uint_set, i32, i32, %class.vector.2, %"class.std::__cxx11::list" }
%"class.lp::lp_core_solver_base.base" = type <{ ptr, i32, i32, i32, [4 x i8], %class.heap, %"class.lp::indexed_vector", ptr, ptr, ptr, ptr, ptr, ptr, ptr, ptr, %class.vector.7, ptr, ptr, ptr, i32, [4 x i8], %class.vector.2, i8, [7 x i8], ptr, i8 }>
%class.heap = type { %class.svector.29, %class.svector.29 }
%class.svector.29 = type { %class.vector.30 }
%class.vector.30 = type { ptr }
%"class.std::__cxx11::list" = type { %"class.std::__cxx11::_List_base" }
%"class.std::__cxx11::_List_base" = type { %"struct.std::__cxx11::_List_base<unsigned int, std::allocator<unsigned int>>::_List_impl" }
%"struct.std::__cxx11::_List_base<unsigned int, std::allocator<unsigned int>>::_List_impl" = type { %"struct.std::__detail::_List_node_header" }
%"struct.std::__detail::_List_node_header" = type { %"struct.std::__detail::_List_node_base", i64 }
%"struct.std::__detail::_List_node_base" = type { ptr, ptr }
%class.svector.34 = type { %class.vector.35 }
%class.vector.35 = type { ptr }
%"class.lp::constraint_set" = type { %class.region, ptr, ptr, %class.vector.36, %class.stacked_value.37, %class.svector, %class.stacked_value.37 }
%class.vector.36 = type { ptr }
%class.stacked_value.37 = type { i32, %class.vector.2 }
%class.scoped_dependency_manager = type { %"class.scoped_dependency_manager<unsigned int>::config::value_manager", %"class.scoped_dependency_manager<unsigned int>::config::allocator", %class.dependency_manager }
%"class.scoped_dependency_manager<unsigned int>::config::value_manager" = type { i8 }
%"class.scoped_dependency_manager<unsigned int>::config::allocator" = type { %class.region }
%class.dependency_manager = type { ptr, ptr, %class.ptr_vector }
%class.vector.38 = type { ptr }
%"class.std::unordered_map.39" = type { %"class.std::_Hashtable.40" }
%"class.std::_Hashtable.40" = type { ptr, i64, %"struct.std::__detail::_Hash_node_base", i64, %"struct.std::__detail::_Prime_rehash_policy", ptr }
%class.vector.16 = type { ptr }
%"class.lp::stacked_vector.27" = type { %class.svector, %class.svector, %class.vector.28, %class.vector.2, %class.svector }
%class.vector.28 = type { ptr }
%class.map.55 = type { %class.table2map.56 }
%class.table2map.56 = type { %class.core_hashtable.57 }
%class.core_hashtable.57 = type <{ ptr, i32, i32, i32, [4 x i8] }>
%class.indexed_uint_set = type { i32, %class.svector, %class.svector }
%"class.std::unordered_set" = type { %"class.std::_Hashtable.59" }
%"class.std::_Hashtable.59" = type { ptr, i64, %"struct.std::__detail::_Hash_node_base", i64, %"struct.std::__detail::_Prime_rehash_policy", ptr }
%"class.std::unordered_set.77" = type { %"class.std::_Hashtable.78" }
%"class.std::_Hashtable.78" = type { ptr, i64, %"struct.std::__detail::_Hash_node_base", i64, %"struct.std::__detail::_Prime_rehash_policy", ptr }
%"class.std::function" = type { %"class.std::_Function_base", ptr }
%"class.std::_Function_base" = type { %"union.std::_Any_data", ptr }
%"union.std::_Any_data" = type { %"union.std::_Nocopy_types" }
%"union.std::_Nocopy_types" = type { { i64, i64 } }

; Function Attrs: mustprogress nounwind uwtable
define linkonce_odr hidden noundef nonnull align 8 dereferenceable(8) ptr @_ZNK6vectorIS_IN2lp8row_cellI8rationalEELb1EjELb1EjEixEj(ptr noundef nonnull align 8 dereferenceable(8) %this, i32 noundef %idx) #4 comdat align 2 {
entry:
  %this.addr = alloca ptr, align 8
  %idx.addr = alloca i32, align 4
  store ptr %this, ptr %this.addr, align 8
  store i32 %idx, ptr %idx.addr, align 4
  %this1 = load ptr, ptr %this.addr, align 8
  %m_data = getelementptr inbounds %class.vector.25, ptr %this1, i32 0, i32 0
  %0 = load ptr, ptr %m_data, align 8
  %1 = load i32, ptr %idx.addr, align 4
  %idxprom = zext i32 %1 to i64
  %arrayidx = getelementptr inbounds %class.vector, ptr %0, i64 %idxprom
  ret ptr %arrayidx
}

; Function Attrs: mustprogress nounwind uwtable
define linkonce_odr hidden noundef nonnull align 8 dereferenceable(120) ptr @_ZNK2lp10lar_solver3A_rEv(ptr noundef nonnull align 8 dereferenceable(1888) %this) #4 comdat align 2 {
entry:
  %this.addr = alloca ptr, align 8
  store ptr %this, ptr %this.addr, align 8
  %this1 = load ptr, ptr %this.addr, align 8
  %m_mpq_lar_core_solver = getelementptr inbounds %"class.lp::lar_solver", ptr %this1, i32 0, i32 7
  %m_r_A = getelementptr inbounds %"class.lp::lar_core_solver", ptr %m_mpq_lar_core_solver, i32 0, i32 9
  ret ptr %m_r_A
}

; Function Attrs: mustprogress uwtable
define hidden noundef i32 @_ZN2lp6gomory3cutERNS_8lar_termER8rationalPNS_11explanationEjRK6vectorINS_8row_cellIS3_EELb1EjE(ptr noundef nonnull align 8 dereferenceable(16) %this, ptr noundef nonnull align 8 dereferenceable(24) %t, ptr noundef nonnull align 8 dereferenceable(32) %k, ptr noundef %ex, i32 noundef %basic_inf_int_j, ptr noundef nonnull align 8 dereferenceable(8) %row) #5 align 2 personality ptr @__gxx_personality_v0 {
entry:
  %this.addr = alloca ptr, align 8
  %t.addr = alloca ptr, align 8
  %k.addr = alloca ptr, align 8
  %ex.addr = alloca ptr, align 8
  %basic_inf_int_j.addr = alloca i32, align 4
  %row.addr = alloca ptr, align 8
  %cc = alloca %"class.lp::create_cut", align 8
  %exn.slot = alloca ptr, align 8
  %ehselector.slot = alloca i32, align 4
  store ptr %this, ptr %this.addr, align 8
  store ptr %t, ptr %t.addr, align 8
  store ptr %k, ptr %k.addr, align 8
  store ptr %ex, ptr %ex.addr, align 8
  store i32 %basic_inf_int_j, ptr %basic_inf_int_j.addr, align 4
  store ptr %row, ptr %row.addr, align 8
  %this1 = load ptr, ptr %this.addr, align 8
  %0 = load ptr, ptr %t.addr, align 8
  %1 = load ptr, ptr %k.addr, align 8
  %2 = load ptr, ptr %ex.addr, align 8
  %3 = load i32, ptr %basic_inf_int_j.addr, align 4
  %4 = load ptr, ptr %row.addr, align 8
  %lia = getelementptr inbounds %"class.lp::gomory", ptr %this1, i32 0, i32 0
  %5 = load ptr, ptr %lia, align 8
  call void @_ZN2lp10create_cutC2ERNS_8lar_termER8rationalPNS_11explanationEjRK6vectorINS_8row_cellIS3_EELb1EjERNS_10int_solverE(ptr noundef nonnull align 8 dereferenceable(272) %cc, ptr noundef nonnull align 8 dereferenceable(24) %0, ptr noundef nonnull align 8 dereferenceable(32) %1, ptr noundef %2, i32 noundef %3, ptr noundef nonnull align 8 dereferenceable(8) %4, ptr noundef nonnull align 8 dereferenceable(504) %5)
  %call = invoke noundef i32 @_ZN2lp10create_cut3cutEv(ptr noundef nonnull align 8 dereferenceable(272) %cc)
          to label %invoke.cont unwind label %lpad

invoke.cont:                                      ; preds = %entry
  call void @_ZN2lp10create_cutD2Ev(ptr noundef nonnull align 8 dereferenceable(272) %cc) #3
  ret i32 %call

lpad:                                             ; preds = %entry
  %6 = landingpad { ptr, i32 }
          cleanup
  %7 = extractvalue { ptr, i32 } %6, 0
  store ptr %7, ptr %exn.slot, align 8
  %8 = extractvalue { ptr, i32 } %6, 1
  store i32 %8, ptr %ehselector.slot, align 4
  call void @_ZN2lp10create_cutD2Ev(ptr noundef nonnull align 8 dereferenceable(272) %cc) #3
  br label %eh.resume

eh.resume:                                        ; preds = %lpad
  %exn = load ptr, ptr %exn.slot, align 8
  %sel = load i32, ptr %ehselector.slot, align 4
  %lpad.val = insertvalue { ptr, i32 } poison, ptr %exn, 0
  %lpad.val2 = insertvalue { ptr, i32 } %lpad.val, i32 %sel, 1
  resume { ptr, i32 } %lpad.val2
}

; Function Attrs: mustprogress uwtable
define linkonce_odr hidden noundef nonnull align 8 dereferenceable(8) ptr @_ZN6vectorIjLb0EjE9push_backERKj(ptr noundef nonnull align 8 dereferenceable(8) %this, ptr noundef nonnull align 4 dereferenceable(4) %elem) #5 comdat align 2 {
entry:
  %this.addr = alloca ptr, align 8
  %elem.addr = alloca ptr, align 8
  store ptr %this, ptr %this.addr, align 8
  store ptr %elem, ptr %elem.addr, align 8
  %this1 = load ptr, ptr %this.addr, align 8
  %m_data = getelementptr inbounds %class.vector.0, ptr %this1, i32 0, i32 0
  %0 = load ptr, ptr %m_data, align 8
  %cmp = icmp eq ptr %0, null
  br i1 %cmp, label %if.then, label %lor.lhs.false

lor.lhs.false:                                    ; preds = %entry
  %m_data2 = getelementptr inbounds %class.vector.0, ptr %this1, i32 0, i32 0
  %1 = load ptr, ptr %m_data2, align 8
  %arrayidx = getelementptr inbounds i32, ptr %1, i64 -1
  %2 = load i32, ptr %arrayidx, align 4
  %m_data3 = getelementptr inbounds %class.vector.0, ptr %this1, i32 0, i32 0
  %3 = load ptr, ptr %m_data3, align 8
  %arrayidx4 = getelementptr inbounds i32, ptr %3, i64 -2
  %4 = load i32, ptr %arrayidx4, align 4
  %cmp5 = icmp eq i32 %2, %4
  br i1 %cmp5, label %if.then, label %if.end

if.then:                                          ; preds = %lor.lhs.false, %entry
  call void @_ZN6vectorIjLb0EjE13expand_vectorEv(ptr noundef nonnull align 8 dereferenceable(8) %this1)
  br label %if.end

if.end:                                           ; preds = %if.then, %lor.lhs.false
  %m_data6 = getelementptr inbounds %class.vector.0, ptr %this1, i32 0, i32 0
  %5 = load ptr, ptr %m_data6, align 8
  %m_data7 = getelementptr inbounds %class.vector.0, ptr %this1, i32 0, i32 0
  %6 = load ptr, ptr %m_data7, align 8
  %arrayidx8 = getelementptr inbounds i32, ptr %6, i64 -1
  %7 = load i32, ptr %arrayidx8, align 4
  %idx.ext = zext i32 %7 to i64
  %add.ptr = getelementptr inbounds i32, ptr %5, i64 %idx.ext
  %8 = load ptr, ptr %elem.addr, align 8
  %9 = load i32, ptr %8, align 4
  store i32 %9, ptr %add.ptr, align 4
  %m_data9 = getelementptr inbounds %class.vector.0, ptr %this1, i32 0, i32 0
  %10 = load ptr, ptr %m_data9, align 8
  %arrayidx10 = getelementptr inbounds i32, ptr %10, i64 -1
  %11 = load i32, ptr %arrayidx10, align 4
  %inc = add i32 %11, 1
  store i32 %inc, ptr %arrayidx10, align 4
  ret ptr %this1
}

; Function Attrs: mustprogress uwtable
define linkonce_odr hidden noundef nonnull align 8 dereferenceable(8) ptr @_ZNK2lp10lar_solver7get_rowEj(ptr noundef nonnull align 8 dereferenceable(1888) %this, i32 noundef %i) #5 comdat align 2 {
entry:
  %this.addr = alloca ptr, align 8
  %i.addr = alloca i32, align 4
  store ptr %this, ptr %this.addr, align 8
  store i32 %i, ptr %i.addr, align 4
  %this1 = load ptr, ptr %this.addr, align 8
  %call = call noundef nonnull align 8 dereferenceable(120) ptr @_ZNK2lp10lar_solver3A_rEv(ptr noundef nonnull align 8 dereferenceable(1888) %this1)
  %m_rows = getelementptr inbounds %"class.lp::static_matrix", ptr %call, i32 0, i32 3
  %0 = load i32, ptr %i.addr, align 4
  %call2 = call noundef nonnull align 8 dereferenceable(8) ptr @_ZNK6vectorIS_IN2lp8row_cellI8rationalEELb1EjELb1EjEixEj(ptr noundef nonnull align 8 dereferenceable(8) %m_rows, i32 noundef %0)
  ret ptr %call2
}

; Function Attrs: mustprogress uwtable
define hidden noundef i32 @_ZN2lp6gomory7get_cutEj(ptr noundef nonnull align 8 dereferenceable(16) %this, i32 noundef %j) #5 align 2 {
entry:
  %this.addr = alloca ptr, align 8
  %j.addr = alloca i32, align 4
  %r = alloca i32, align 4
  %row = alloca ptr, align 8
  store ptr %this, ptr %this.addr, align 8
  store i32 %j, ptr %j.addr, align 4
  %this1 = load ptr, ptr %this.addr, align 8
  %lia = getelementptr inbounds %"class.lp::gomory", ptr %this1, i32 0, i32 0
  %0 = load ptr, ptr %lia, align 8
  %1 = load i32, ptr %j.addr, align 4
  %call = call noundef i32 @_ZNK2lp10int_solver19row_of_basic_columnEj(ptr noundef nonnull align 8 dereferenceable(504) %0, i32 noundef %1)
  store i32 %call, ptr %r, align 4
  %lra = getelementptr inbounds %"class.lp::gomory", ptr %this1, i32 0, i32 1
  %2 = load ptr, ptr %lra, align 8
  %3 = load i32, ptr %r, align 4
  %call2 = call noundef nonnull align 8 dereferenceable(8) ptr @_ZNK2lp10lar_solver7get_rowEj(ptr noundef nonnull align 8 dereferenceable(1888) %2, i32 noundef %3)
  store ptr %call2, ptr %row, align 8
  %lia3 = getelementptr inbounds %"class.lp::gomory", ptr %this1, i32 0, i32 0
  %4 = load ptr, ptr %lia3, align 8
  %m_upper = getelementptr inbounds %"class.lp::int_solver", ptr %4, i32 0, i32 8
  store i8 0, ptr %m_upper, align 8
  %lia4 = getelementptr inbounds %"class.lp::gomory", ptr %this1, i32 0, i32 0
  %5 = load ptr, ptr %lia4, align 8
  %m_cut_vars = getelementptr inbounds %"class.lp::int_solver", ptr %5, i32 0, i32 12
  %call5 = call noundef nonnull align 8 dereferenceable(8) ptr @_ZN6vectorIjLb0EjE9push_backERKj(ptr noundef nonnull align 8 dereferenceable(8) %m_cut_vars, ptr noundef nonnull align 4 dereferenceable(4) %j.addr)
  %lia6 = getelementptr inbounds %"class.lp::gomory", ptr %this1, i32 0, i32 0
  %6 = load ptr, ptr %lia6, align 8
  %m_t = getelementptr inbounds %"class.lp::int_solver", ptr %6, i32 0, i32 6
  %lia7 = getelementptr inbounds %"class.lp::gomory", ptr %this1, i32 0, i32 0
  %7 = load ptr, ptr %lia7, align 8
  %m_k = getelementptr inbounds %"class.lp::int_solver", ptr %7, i32 0, i32 7
  %lia8 = getelementptr inbounds %"class.lp::gomory", ptr %this1, i32 0, i32 0
  %8 = load ptr, ptr %lia8, align 8
  %m_ex = getelementptr inbounds %"class.lp::int_solver", ptr %8, i32 0, i32 9
  %9 = load ptr, ptr %m_ex, align 8
  %10 = load i32, ptr %j.addr, align 4
  %11 = load ptr, ptr %row, align 8
  %call9 = call noundef i32 @_ZN2lp6gomory3cutERNS_8lar_termER8rationalPNS_11explanationEjRK6vectorINS_8row_cellIS3_EELb1EjE(ptr noundef nonnull align 8 dereferenceable(16) %this1, ptr noundef nonnull align 8 dereferenceable(24) %m_t, ptr noundef nonnull align 8 dereferenceable(32) %m_k, ptr noundef %9, i32 noundef %10, ptr noundef nonnull align 8 dereferenceable(8) %11)
  ret i32 %call9
}