; Function Attrs: mustprogress uwtable
define hidden noundef i32 @_ZN2lp6gomory7get_cutEj(ptr nocapture noundef nonnull readonly align 8 dereferenceable(16) %this, i32 noundef %j) local_unnamed_addr #3 align 2 personality ptr @__gxx_personality_v0 {
entry:
  %cc.i = alloca %"class.lp::create_cut", align 8
  %0 = load ptr, ptr %this, align 8
  %call = tail call noundef i32 @_ZNK2lp10int_solver19row_of_basic_columnEj(ptr noundef nonnull align 8 dereferenceable(504) %0, i32 noundef %j)
  %lra = getelementptr inbounds i8, ptr %this, i64 8
  %1 = load ptr, ptr %lra, align 8
  %m_rows.i = getelementptr inbounds i8, ptr %1, i64 688
  %2 = load ptr, ptr %m_rows.i, align 8
  %idxprom.i.i = zext i32 %call to i64
  %arrayidx.i.i = getelementptr inbounds %class.vector, ptr %2, i64 %idxprom.i.i
  %3 = load ptr, ptr %this, align 8
  %m_upper = getelementptr inbounds i8, ptr %3, i64 256
  store i8 0, ptr %m_upper, align 8
  %4 = load ptr, ptr %this, align 8
  %m_cut_vars = getelementptr inbounds i8, ptr %4, i64 488
  %5 = load ptr, ptr %m_cut_vars, align 8
  %cmp.i = icmp eq ptr %5, null
  br i1 %cmp.i, label %if.then.i, label %lor.lhs.false.i

lor.lhs.false.i:                                  ; preds = %entry
  %arrayidx.i = getelementptr inbounds i8, ptr %5, i64 -4
  %6 = load i32, ptr %arrayidx.i, align 4
  %arrayidx4.i = getelementptr inbounds i8, ptr %5, i64 -8
  %7 = load i32, ptr %arrayidx4.i, align 4
  %cmp5.i = icmp eq i32 %6, %7
  br i1 %cmp5.i, label %if.then.i, label %_ZN6vectorIjLb0EjE9push_backERKj.exit

if.then.i:                                        ; preds = %lor.lhs.false.i, %entry
  tail call void @_ZN6vectorIjLb0EjE13expand_vectorEv(ptr noundef nonnull align 8 dereferenceable(8) %m_cut_vars)
  %.pre.i = load ptr, ptr %m_cut_vars, align 8
  %arrayidx8.phi.trans.insert.i = getelementptr inbounds i8, ptr %.pre.i, i64 -4
  %.pre1.i = load i32, ptr %arrayidx8.phi.trans.insert.i, align 4
  br label %_ZN6vectorIjLb0EjE9push_backERKj.exit

_ZN6vectorIjLb0EjE9push_backERKj.exit:            ; preds = %lor.lhs.false.i, %if.then.i
  %8 = phi i32 [ %.pre1.i, %if.then.i ], [ %6, %lor.lhs.false.i ]
  %9 = phi ptr [ %.pre.i, %if.then.i ], [ %5, %lor.lhs.false.i ]
  %idx.ext.i = zext i32 %8 to i64
  %add.ptr.i = getelementptr inbounds i32, ptr %9, i64 %idx.ext.i
  store i32 %j, ptr %add.ptr.i, align 4
  %10 = load ptr, ptr %m_cut_vars, align 8
  %arrayidx10.i = getelementptr inbounds i8, ptr %10, i64 -4
  %11 = load i32, ptr %arrayidx10.i, align 4
  %inc.i = add i32 %11, 1
  store i32 %inc.i, ptr %arrayidx10.i, align 4
  %12 = load ptr, ptr %this, align 8
  %m_t = getelementptr inbounds i8, ptr %12, i64 200
  %m_k = getelementptr inbounds i8, ptr %12, i64 224
  %m_ex = getelementptr inbounds i8, ptr %12, i64 264
  %13 = load ptr, ptr %m_ex, align 8
  call void @llvm.lifetime.start.p0(i64 272, ptr nonnull %cc.i)
  call void @_ZN2lp10create_cutC2ERNS_8lar_termER8rationalPNS_11explanationEjRK6vectorINS_8row_cellIS3_EELb1EjERNS_10int_solverE(ptr noundef nonnull align 8 dereferenceable(272) %cc.i, ptr noundef nonnull align 8 dereferenceable(24) %m_t, ptr noundef nonnull align 8 dereferenceable(32) %m_k, ptr noundef %13, i32 noundef %j, ptr noundef nonnull align 8 dereferenceable(8) %arrayidx.i.i, ptr noundef nonnull align 8 dereferenceable(504) %12)
  %call.i = invoke noundef i32 @_ZN2lp10create_cut3cutEv(ptr noundef nonnull align 8 dereferenceable(272) %cc.i)
          to label %_ZN2lp6gomory3cutERNS_8lar_termER8rationalPNS_11explanationEjRK6vectorINS_8row_cellIS3_EELb1EjE.exit unwind label %lpad.i

lpad.i:                                           ; preds = %_ZN6vectorIjLb0EjE9push_backERKj.exit
  %14 = landingpad { ptr, i32 }
          cleanup
  call void @_ZN2lp10create_cutD2Ev(ptr noundef nonnull align 8 dereferenceable(272) %cc.i) #16
  resume { ptr, i32 } %14

_ZN2lp6gomory3cutERNS_8lar_termER8rationalPNS_11explanationEjRK6vectorINS_8row_cellIS3_EELb1EjE.exit: ; preds = %_ZN6vectorIjLb0EjE9push_backERKj.exit
  call void @_ZN2lp10create_cutD2Ev(ptr noundef nonnull align 8 dereferenceable(272) %cc.i) #16
  call void @llvm.lifetime.end.p0(i64 272, ptr nonnull %cc.i)
  ret i32 %call.i
}